; Function Attrs: mustprogress nofree norecurse nosync nounwind willreturn memory(argmem: readwrite) uwtable
define noundef i32 @jsonnet_json_extract_number(ptr nocapture noundef readnone %0, ptr nocapture noundef readonly %1, ptr nocapture noundef writeonly %2) local_unnamed_addr #4 {
  %4 = load i32, ptr %1, align 8
  %.not = icmp eq i32 %4, 3
  br i1 %.not, label %5, label %8

5:                                                ; preds = %3
  %6 = getelementptr inbounds i8, ptr %1, i64 40
  %7 = load double, ptr %6, align 8
  store double %7, ptr %2, align 8
  br label %8

8:                                                ; preds = %3, %5
  %.0 = phi i32 [ 1, %5 ], [ 0, %3 ]
  ret i32 %.0
}